; Function Attrs: nounwind sspstrong uwtable
define internal range(i64 1, 0) i64 @sockopt_level_m(i64 noundef %0) #0 {
  %.pr.i.i = load i64, ptr @sockopt_level.rbimpl_id, align 8, !tbaa !6
  %.not4.i.i = icmp eq i64 %.pr.i.i, 0
  br i1 %.not4.i.i, label %.lr.ph.i.i, label %rbimpl_intern_const.exit.i

.lr.ph.i.i:                                       ; preds = %1, %.lr.ph.i.i
  %2 = tail call i64 @rb_intern2(ptr noundef nonnull @.str.3, i64 noundef 5) #6
  store i64 %2, ptr @sockopt_level.rbimpl_id, align 8, !tbaa !6
  %.not.i.i = icmp eq i64 %2, 0
  br i1 %.not.i.i, label %.lr.ph.i.i, label %rbimpl_intern_const.exit.i, !llvm.loop !10

rbimpl_intern_const.exit.i:                       ; preds = %.lr.ph.i.i, %1
  %.lcssa.i.i = phi i64 [ %.pr.i.i, %1 ], [ %2, %.lr.ph.i.i ]
  %3 = tail call i64 @rb_attr_get(i64 noundef %0, i64 noundef %.lcssa.i.i) #6
  %4 = and i64 %3, 1
  %.not.i2.i = icmp eq i64 %4, 0
  br i1 %.not.i2.i, label %7, label %5

5:                                                ; preds = %rbimpl_intern_const.exit.i
  %6 = tail call i64 @rb_fix2int(i64 noundef %3) #6
  br label %sockopt_level.exit

7:                                                ; preds = %rbimpl_intern_const.exit.i
  %8 = tail call i64 @rb_num2int(i64 noundef %3) #6
  br label %sockopt_level.exit

sockopt_level.exit:                               ; preds = %5, %7
  %.0.i.i = phi i64 [ %6, %5 ], [ %8, %7 ]
  %sext = shl i64 %.0.i.i, 32
  %9 = ashr exact i64 %sext, 31
  %10 = or disjoint i64 %9, 1
  ret i64 %10
}